; Function Attrs: nounwind uwtable
define hidden noundef zeroext i1 @SDL_HasEvent_REAL(i32 noundef %0) local_unnamed_addr #0 {
  %2 = load ptr, ptr @SDL_EventQ, align 8
  tail call void @SDL_LockMutex_REAL(ptr noundef %2) #8
  %3 = load i8, ptr getelementptr inbounds nuw (i8, ptr @SDL_EventQ, i64 8), align 8, !range !6, !noundef !7
  %4 = trunc nuw i8 %3 to i1
  %.0914.i = load ptr, ptr getelementptr inbounds nuw (i8, ptr @SDL_EventQ, i64 24), align 8
  %.not15.not.i = icmp ne ptr %.0914.i, null
  %or.cond.not19.i = select i1 %4, i1 %.not15.not.i, i1 false
  br i1 %or.cond.not19.i, label %.lr.ph.i, label %SDL_HasEvents_REAL.exit

5:                                                ; preds = %.lr.ph.i
  %6 = getelementptr inbounds nuw i8, ptr %.0916.i, i64 144
  %.09.i = load ptr, ptr %6, align 8
  %.not.not.i = icmp eq ptr %.09.i, null
  br i1 %.not.not.i, label %SDL_HasEvents_REAL.exit, label %.lr.ph.i, !llvm.loop !14

.lr.ph.i:                                         ; preds = %1, %5
  %.0916.i = phi ptr [ %.09.i, %5 ], [ %.0914.i, %1 ]
  %7 = load i32, ptr %.0916.i, align 8
  %or.cond.not.i = icmp eq i32 %7, %0
  br i1 %or.cond.not.i, label %SDL_HasEvents_REAL.exit, label %5

SDL_HasEvents_REAL.exit:                          ; preds = %5, %.lr.ph.i, %1
  %.0.i = phi i1 [ false, %1 ], [ %or.cond.not.i, %.lr.ph.i ], [ %or.cond.not.i, %5 ]
  %8 = load ptr, ptr @SDL_EventQ, align 8
  tail call void @SDL_UnlockMutex_REAL(ptr noundef %8) #8
  ret i1 %.0.i
}